target datalayout = "e-m:e-p270:32:32-p271:32:32-p272:64:64-i64:64-i128:128-f80:128-n8:16:32:64-S128"
target triple = "x86_64-pc-linux-gnu"

%struct.json_dumper = type { ptr, ptr, i32, i32, i32, i32, [1100 x i8] }
%struct._phs_t = type { ptr, ptr, ptr, ptr, i32, ptr, i32, i64 }

@dumper = internal global %struct.json_dumper zeroinitializer, align 8
@.str.20 = private unnamed_addr constant [4 x i8] c"tap\00", align 1
@.str.34 = private unnamed_addr constant [7 x i8] c"filter\00", align 1
@.str.155 = private unnamed_addr constant [4 x i8] c"phs\00", align 1
@.str.218 = private unnamed_addr constant [1 x i8] zeroinitializer, align 1
@.str.244 = private unnamed_addr constant [5 x i8] c"type\00", align 1
@.str.370 = private unnamed_addr constant [7 x i8] c"protos\00", align 1

; Function Attrs: null_pointer_is_valid sspstrong uwtable
define internal void @sharkd_json_object_close() #0 {
  call void @json_dumper_end_object(ptr noundef @dumper)
  ret void
}

; Function Attrs: null_pointer_is_valid sspstrong uwtable
define internal void @sharkd_json_array_close() #0 {
  call void @json_dumper_end_array(ptr noundef @dumper)
  ret void
}

; Function Attrs: null_pointer_is_valid sspstrong uwtable
define internal void @sharkd_json_array_open(ptr noundef %0) #0 {
  %2 = alloca ptr, align 8
  store ptr %0, ptr %2, align 8
  %3 = load ptr, ptr %2, align 8
  %4 = icmp ne ptr %3, null
  br i1 %4, label %5, label %7

5:                                                ; preds = %1
  %6 = load ptr, ptr %2, align 8
  call void @json_dumper_set_member_name(ptr noundef @dumper, ptr noundef %6)
  br label %7

7:                                                ; preds = %5, %1
  call void @json_dumper_begin_array(ptr noundef @dumper)
  ret void
}

; Function Attrs: null_pointer_is_valid sspstrong uwtable
define internal void @sharkd_json_value_string(ptr noundef %0, ptr noundef %1) #0 {
  %3 = alloca ptr, align 8
  %4 = alloca ptr, align 8
  store ptr %0, ptr %3, align 8
  store ptr %1, ptr %4, align 8
  %5 = load ptr, ptr %3, align 8
  %6 = icmp ne ptr %5, null
  br i1 %6, label %7, label %9

7:                                                ; preds = %2
  %8 = load ptr, ptr %3, align 8
  call void @json_dumper_set_member_name(ptr noundef @dumper, ptr noundef %8)
  br label %9

9:                                                ; preds = %7, %2
  %10 = load ptr, ptr %4, align 8
  call void @json_dumper_value_string(ptr noundef @dumper, ptr noundef %10)
  ret void
}

; Function Attrs: null_pointer_is_valid sspstrong uwtable
define internal void @sharkd_json_object_open(ptr noundef %0) #0 {
  %2 = alloca ptr, align 8
  store ptr %0, ptr %2, align 8
  %3 = load ptr, ptr %2, align 8
  %4 = icmp ne ptr %3, null
  br i1 %4, label %5, label %7

5:                                                ; preds = %1
  %6 = load ptr, ptr %2, align 8
  call void @json_dumper_set_member_name(ptr noundef @dumper, ptr noundef %6)
  br label %7

7:                                                ; preds = %5, %1
  call void @json_dumper_begin_object(ptr noundef @dumper)
  ret void
}

; Function Attrs: null_pointer_is_valid sspstrong uwtable
define internal void @sharkd_session_process_tap_phs_cb(ptr noundef %0) #0 {
  %2 = alloca ptr, align 8
  %3 = alloca ptr, align 8
  store ptr %0, ptr %2, align 8
  call void @llvm.lifetime.start.p0(i64 8, ptr %3) #21
  %4 = load ptr, ptr %2, align 8
  store ptr %4, ptr %3, align 8
  call void @sharkd_json_object_open(ptr noundef null)
  call void @sharkd_json_value_string(ptr noundef @.str.20, ptr noundef @.str.155)
  call void @sharkd_json_value_string(ptr noundef @.str.244, ptr noundef @.str.155)
  %5 = load ptr, ptr %3, align 8
  %6 = getelementptr inbounds nuw %struct._phs_t, ptr %5, i32 0, i32 3
  %7 = load ptr, ptr %6, align 8
  %8 = icmp ne ptr %7, null
  br i1 %8, label %9, label %13

9:                                                ; preds = %1
  %10 = load ptr, ptr %3, align 8
  %11 = getelementptr inbounds nuw %struct._phs_t, ptr %10, i32 0, i32 3
  %12 = load ptr, ptr %11, align 8
  br label %14

13:                                               ; preds = %1
  br label %14

14:                                               ; preds = %13, %9
  %15 = phi ptr [ %12, %9 ], [ @.str.218, %13 ]
  call void @sharkd_json_value_string(ptr noundef @.str.34, ptr noundef %15)
  call void @sharkd_json_array_open(ptr noundef @.str.370)
  %16 = load ptr, ptr %3, align 8
  call void @sharkd_session_process_tap_phs_cb_aux(ptr noundef %16)
  call void @sharkd_json_array_close()
  call void @sharkd_json_object_close()
  call void @llvm.lifetime.end.p0(i64 8, ptr %3) #21
  ret void
}