; Function Attrs: null_pointer_is_valid sspstrong uwtable
define internal void @sharkd_session_process_tap_phs_cb(ptr noundef captures(address_is_null) %0) #0 {
  tail call void @json_dumper_begin_object(ptr noundef nonnull @dumper)
  tail call void @json_dumper_set_member_name(ptr noundef nonnull @dumper, ptr noundef nonnull @.str.20)
  tail call void @json_dumper_value_string(ptr noundef nonnull @dumper, ptr noundef nonnull @.str.155)
  tail call void @json_dumper_set_member_name(ptr noundef nonnull @dumper, ptr noundef nonnull @.str.244)
  tail call void @json_dumper_value_string(ptr noundef nonnull @dumper, ptr noundef nonnull @.str.155)
  %2 = getelementptr inbounds nuw i8, ptr %0, i64 24
  %3 = load ptr, ptr %2, align 8
  %.not = icmp eq ptr %3, null
  %spec.select = select i1 %.not, ptr @.str.218, ptr %3
  tail call void @json_dumper_set_member_name(ptr noundef nonnull @dumper, ptr noundef nonnull @.str.34)
  tail call void @json_dumper_value_string(ptr noundef nonnull @dumper, ptr noundef nonnull %spec.select)
  tail call void @json_dumper_set_member_name(ptr noundef nonnull @dumper, ptr noundef nonnull @.str.370)
  tail call void @json_dumper_begin_array(ptr noundef nonnull @dumper)
  tail call fastcc void @sharkd_session_process_tap_phs_cb_aux(ptr noundef %0)
  tail call void @json_dumper_end_array(ptr noundef nonnull @dumper)
  tail call void @json_dumper_end_object(ptr noundef nonnull @dumper)
  ret void
}